(iNetwork
Network
p0
(dp1
S'input'
p2
(iLayer
Layer
p3
(dp4
S'neurons'
p5
(lp6
(iNeuron
Neuron
p7
(dp8
S'in_syn'
p9
(lp10
sS'output'
p11
I-191
sS'out_syn'
p12
(lp13
(iSynapse
Synapse
p14
(dp15
S'epsylon'
p16
F0.7
sS'prev_delta'
p17
F-2.270464273374534e-16
sS'neuron_in'
p18
g7
sS'neuron_out'
p19
(iNeuron
Neuron
p20
(dp21
g9
(lp22
g14
a(iSynapse
Synapse
p23
(dp24
g16
F0.7
sg17
F1.355018053397505e-16
sg18
(iNeuron
Neuron
p25
(dp26
g9
(lp27
sg11
I114
sg12
(lp28
g23
a(iSynapse
Synapse
p29
(dp30
g16
F0.7
sg17
F0.0
sg18
g25
sg19
(iNeuron
Neuron
p31
(dp32
g9
(lp33
(iSynapse
Synapse
p34
(dp35
g16
F0.7
sg17
F0.0
sg18
g7
sg19
g31
sS'weight'
p36
F0.5290641687143891
sbag29
asg11
F-1.0
sg12
(lp37
(iSynapse
Synapse
p38
(dp39
g16
F0.7
sg17
F-0.00048176100167579425
sg18
g31
sg19
(iNeuron
Neuron
p40
(dp41
g9
(lp42
(iSynapse
Synapse
p43
(dp44
g16
F0.7
sg17
F-0.0004817610016757933
sg18
g20
sg19
g40
sg36
F-0.10515834762211235
sbag38
a(iSynapse
Synapse
p45
(dp46
g16
F0.7
sg17
F0.00048176100167579425
sg18
(iNeuron
Neuron
p47
(dp48
g9
(lp49
(iSynapse
Synapse
p50
(dp51
g16
F0.7
sg17
F0.0
sg18
g7
sg19
g47
sg36
F-0.8001784635067477
sba(iSynapse
Synapse
p52
(dp53
g16
F0.7
sg17
F0.0
sg18
g25
sg19
g47
sg36
F0.9931628777638764
sbasg11
F1.0
sg12
(lp54
g45
a(iSynapse
Synapse
p55
(dp56
g16
F0.7
sg17
F0.00048176100167579425
sg18
g47
sg19
(iNeuron
Neuron
p57
(dp58
g9
(lp59
(iSynapse
Synapse
p60
(dp61
g16
F0.7
sg17
F-0.0004817610016757933
sg18
g20
sg19
g57
sg36
F0.7489738364234814
sba(iSynapse
Synapse
p62
(dp63
g16
F0.7
sg17
F-0.00048176100167579425
sg18
g31
sg19
g57
sg36
F-0.8028313582410262
sbag55
a(iSynapse
Synapse
p64
(dp65
g16
F0.7
sg17
F0.00048176100167579425
sg18
(iNeuron
Neuron
p66
(dp67
g9
(lp68
(iSynapse
Synapse
p69
(dp70
g16
F0.7
sg17
F0.0
sg18
g7
sg19
g66
sg36
F-0.21369752647674334
sba(iSynapse
Synapse
p71
(dp72
g16
F0.7
sg17
F0.0
sg18
g25
sg19
g66
sg36
F0.7638887009906914
sbasg11
F1.0
sg12
(lp73
(iSynapse
Synapse
p74
(dp75
g16
F0.7
sg17
F0.00048176100167579425
sg18
g66
sg19
g40
sg36
F0.19307728452178644
sbag64
asS'error'
p76
F0.0
sbsg19
g57
sg36
F0.0685740974610351
sba(iSynapse
Synapse
p77
(dp78
g16
F0.7
sg17
F-0.0004814785222706377
sg18
(iNeuron
Neuron
p79
(dp80
g9
(lp81
(iSynapse
Synapse
p82
(dp83
g16
F0.7
sg17
F-4.24930306049718e-05
sg18
g7
sg19
g79
sg36
F0.5077056793987998
sba(iSynapse
Synapse
p84
(dp85
g16
F0.7
sg17
F2.535949705258816e-05
sg18
g25
sg19
g79
sg36
F0.8154028596737801
sbasg11
F-0.9993502320643596
sg12
(lp86
(iSynapse
Synapse
p87
(dp88
g16
F0.7
sg17
F-0.0004814785222706377
sg18
g79
sg19
g40
sg36
F0.9697430342245267
sbag77
asg76
F7.057098310219145e-05
sbsg19
g57
sg36
F-0.578786854333267
sba(iSynapse
Synapse
p89
(dp90
g16
F0.7
sg17
F-0.00048176100167579425
sg18
(iNeuron
Neuron
p91
(dp92
g9
(lp93
(iSynapse
Synapse
p94
(dp95
g16
F0.7
sg17
F0.0
sg18
g7
sg19
g91
sg36
F0.9104480779310584
sba(iSynapse
Synapse
p96
(dp97
g16
F0.7
sg17
F0.0
sg18
g25
sg19
g91
sg36
F-0.016551383536269615
sbasg11
F-1.0
sg12
(lp98
(iSynapse
Synapse
p99
(dp100
g16
F0.7
sg17
F-0.00048176100167579425
sg18
g91
sg19
g40
sg36
F-0.40538707131094426
sbag89
asg76
F-0.0
sbsg19
g57
sg36
F0.20966709807897185
sba(iSynapse
Synapse
p101
(dp102
g16
F0.7
sg17
F0.00048176100167579425
sg18
(iNeuron
Neuron
p103
(dp104
g9
(lp105
(iSynapse
Synapse
p106
(dp107
g16
F0.7
sg17
F0.0
sg18
g7
sg19
g103
sg36
F-0.813309531890293
sba(iSynapse
Synapse
p108
(dp109
g16
F0.7
sg17
F0.0
sg18
g25
sg19
g103
sg36
F-0.05378622282204537
sbasg11
F1.0
sg12
(lp110
(iSynapse
Synapse
p111
(dp112
g16
F0.7
sg17
F0.00048176100167579425
sg18
g103
sg19
g40
sg36
F0.713725047704195
sbag101
asg76
F0.0
sbsg19
g57
sg36
F0.9657076319858463
sba(iSynapse
Synapse
p113
(dp114
g16
F0.7
sg17
F-0.00048176100167579425
sg18
(iNeuron
Neuron
p115
(dp116
g9
(lp117
(iSynapse
Synapse
p118
(dp119
g16
F0.7
sg17
F0.0
sg18
g7
sg19
g115
sg36
F0.2545948229792554
sba(iSynapse
Synapse
p120
(dp121
g16
F0.7
sg17
F0.0
sg18
g25
sg19
g115
sg36
F-0.004785848216374067
sbasg11
F-1.0
sg12
(lp122
(iSynapse
Synapse
p123
(dp124
g16
F0.7
sg17
F-0.00048176100167579425
sg18
g115
sg19
g40
sg36
F-0.10167241023862013
sbag113
asg76
F0.0
sbsg19
g57
sg36
F0.8360473351173254
sba(iSynapse
Synapse
p125
(dp126
g16
F0.7
sg17
F-0.00048176100167579425
sg18
(iNeuron
Neuron
p127
(dp128
g9
(lp129
(iSynapse
Synapse
p130
(dp131
g16
F0.7
sg17
F0.0
sg18
g7
sg19
g127
sg36
F0.9759234333384834
sba(iSynapse
Synapse
p132
(dp133
g16
F0.7
sg17
F0.0
sg18
g25
sg19
g127
sg36
F-0.6566791601435789
sbasg11
F-1.0
sg12
(lp134
(iSynapse
Synapse
p135
(dp136
g16
F0.7
sg17
F-0.00048176100167579425
sg18
g127
sg19
g40
sg36
F0.43491557366025885
sbag125
asg76
F0.0
sbsg19
g57
sg36
F-0.010548534958209869
sba(iSynapse
Synapse
p137
(dp138
g16
F0.7
sg17
F0.0004817609941257441
sg18
(iNeuron
Neuron
p139
(dp140
g9
(lp141
(iSynapse
Synapse
p142
(dp143
g16
F0.7
sg17
F-4.859261912683171e-11
sg18
g7
sg19
g139
sg36
F0.41733207036394865
sba(iSynapse
Synapse
p144
(dp145
g16
F0.7
sg17
F2.8992207225374757e-11
sg18
g25
sg19
g139
sg36
F0.7814476931748365
sbasg11
F0.9999999856005524
sg12
(lp146
(iSynapse
Synapse
p147
(dp148
g16
F0.7
sg17
F0.0004817609941257441
sg18
g139
sg19
g40
sg36
F-0.07471922484831599
sbag137
asg76
F8.146891969576486e-11
sbsg19
g57
sg36
F0.09564819359157746
sbasg11
F-0.0717216275383184
sg12
(lp149
sg76
F0.14168931141991375
sbsg36
F-0.798877309422465
sbasg76
F-0.0
sbsg19
g40
sg36
F-0.20515407048618245
sbag74
ag87
ag99
ag111
ag123
ag135
ag147
asg11
F0.13694844772324788
sg12
(lp150
sg76
F0.14168931141991375
sbsg36
F-0.30269599615851445
sbag62
asg76
F-0.0
sbsg36
F-0.088225589034165
sbag52
ag71
ag84
ag96
ag108
ag120
ag132
ag144
asg76
I0
sbsg19
g20
sg36
F1.0134753566883163
sbasg11
F-0.999999999999998
sg12
(lp151
g43
ag60
asg76
F3.651410935969349e-16
sbsg36
F0.6953041922607894
sbag34
ag50
ag69
ag82
ag94
ag106
ag118
ag130
ag142
asg76
I0
sbag25
asbsS'hidden'
p152
(lp153
(iLayer
Layer
p154
(dp155
g5
(lp156
g20
ag31
ag47
ag66
ag79
ag91
ag103
ag115
ag127
ag139
asbasg11
(iLayer
Layer
p157
(dp158
g5
(lp159
g40
ag57
asbsb.