(iNetwork
Network
p0
(dp1
S'input'
p2
(iLayer
Layer
p3
(dp4
S'neurons'
p5
(lp6
(iNeuron
Neuron
p7
(dp8
S'in_syn'
p9
(lp10
sS'output'
p11
I-191
sS'out_syn'
p12
(lp13
(iSynapse
Synapse
p14
(dp15
S'epsylon'
p16
F0.7
sS'prev_delta'
p17
F-1.1907488988780553e-05
sS'neuron_in'
p18
g7
sS'neuron_out'
p19
(iNeuron
Neuron
p20
(dp21
g9
(lp22
g14
a(iSynapse
Synapse
p23
(dp24
g16
F0.7
sg17
F7.106506857265707e-06
sg18
(iNeuron
Neuron
p25
(dp26
g9
(lp27
sg11
I114
sg12
(lp28
g23
a(iSynapse
Synapse
p29
(dp30
g16
F0.7
sg17
F-2.513161208316151e-56
sg18
g25
sg19
(iNeuron
Neuron
p31
(dp32
g9
(lp33
(iSynapse
Synapse
p34
(dp35
g16
F0.7
sg17
F2.1769737382104923e-56
sg18
g7
sg19
g31
sS'weight'
p36
F0.6006449899100277
sbag29
asg11
F-1.0
sg12
(lp37
(iSynapse
Synapse
p38
(dp39
g16
F0.7
sg17
F-0.00048176100167579425
sg18
g31
sg19
(iNeuron
Neuron
p40
(dp41
g9
(lp42
(iSynapse
Synapse
p43
(dp44
g16
F0.7
sg17
F0.00048172012433844003
sg18
g20
sg19
g40
sg36
F0.7640821664319558
sbag38
a(iSynapse
Synapse
p45
(dp46
g16
F0.7
sg17
F0.00048176100167579425
sg18
(iNeuron
Neuron
p47
(dp48
g9
(lp49
(iSynapse
Synapse
p50
(dp51
g16
F0.7
sg17
F0.0
sg18
g7
sg19
g47
sg36
F-0.8449698110826989
sba(iSynapse
Synapse
p52
(dp53
g16
F0.7
sg17
F0.0
sg18
g25
sg19
g47
sg36
F-0.2902284817277849
sbasg11
F1.0
sg12
(lp54
g45
asS'error'
p55
F0.0
sbsg19
g40
sg36
F0.007995973240067131
sba(iSynapse
Synapse
p56
(dp57
g16
F0.7
sg17
F-0.00048176100167579425
sg18
(iNeuron
Neuron
p58
(dp59
g9
(lp60
(iSynapse
Synapse
p61
(dp62
g16
F0.7
sg17
F0.0
sg18
g7
sg19
g58
sg36
F0.29730015860159864
sba(iSynapse
Synapse
p63
(dp64
g16
F0.7
sg17
F0.0
sg18
g25
sg19
g58
sg36
F-0.6557299644322911
sbasg11
F-1.0
sg12
(lp65
g56
asg55
F0.0
sbsg19
g40
sg36
F0.37943080647974586
sba(iSynapse
Synapse
p66
(dp67
g16
F0.7
sg17
F-0.00048176100167579425
sg18
(iNeuron
Neuron
p68
(dp69
g9
(lp70
(iSynapse
Synapse
p71
(dp72
g16
F0.7
sg17
F0.0
sg18
g7
sg19
g68
sg36
F0.7725983783091306
sba(iSynapse
Synapse
p73
(dp74
g16
F0.7
sg17
F0.0
sg18
g25
sg19
g68
sg36
F-0.28844566834548746
sbasg11
F-1.0
sg12
(lp75
g66
asg55
F-0.0
sbsg19
g40
sg36
F-0.7225158098948368
sba(iSynapse
Synapse
p76
(dp77
g16
F0.7
sg17
F-0.00048176100167579425
sg18
(iNeuron
Neuron
p78
(dp79
g9
(lp80
(iSynapse
Synapse
p81
(dp82
g16
F0.7
sg17
F4.7351853245634474e-20
sg18
g7
sg19
g78
sg36
F-0.49429696412111046
sba(iSynapse
Synapse
p83
(dp84
g16
F0.7
sg17
F-2.162466440463504e-20
sg18
g25
sg19
g78
sg36
F-1.0941506729929804
sbasg11
F-1.0
sg12
(lp85
g76
asg55
F0.0
sbsg19
g40
sg36
F0.5426361602214781
sba(iSynapse
Synapse
p86
(dp87
g16
F0.7
sg17
F0.00048176100167579425
sg18
(iNeuron
Neuron
p88
(dp89
g9
(lp90
(iSynapse
Synapse
p91
(dp92
g16
F0.7
sg17
F0.0
sg18
g7
sg19
g88
sg36
F-0.007032676895058376
sba(iSynapse
Synapse
p93
(dp94
g16
F0.7
sg17
F0.0
sg18
g25
sg19
g88
sg36
F0.24099685602302623
sbasg11
F1.0
sg12
(lp95
g86
asg55
F0.0
sbsg19
g40
sg36
F0.25177374798060065
sba(iSynapse
Synapse
p96
(dp97
g16
F0.7
sg17
F0.00048176100167579425
sg18
(iNeuron
Neuron
p98
(dp99
g9
(lp100
(iSynapse
Synapse
p101
(dp102
g16
F0.7
sg17
F-2.783498117528345e-26
sg18
g7
sg19
g98
sg36
F0.2583954890662563
sba(iSynapse
Synapse
p103
(dp104
g16
F0.7
sg17
F9.906305934625779e-27
sg18
g25
sg19
g98
sg36
F0.7828754541634684
sbasg11
F1.0
sg12
(lp105
g96
asg55
F-0.0
sbsg19
g40
sg36
F-0.5379382444037768
sba(iSynapse
Synapse
p106
(dp107
g16
F0.7
sg17
F0.00048176100167579425
sg18
(iNeuron
Neuron
p108
(dp109
g9
(lp110
(iSynapse
Synapse
p111
(dp112
g16
F0.7
sg17
F0.0
sg18
g7
sg19
g108
sg36
F-0.2707135311179445
sba(iSynapse
Synapse
p113
(dp114
g16
F0.7
sg17
F0.0
sg18
g25
sg19
g108
sg36
F-0.0465194986358306
sbasg11
F1.0
sg12
(lp115
g106
asg55
F-0.0
sbsg19
g40
sg36
F-0.12698884055235668
sba(iSynapse
Synapse
p116
(dp117
g16
F0.7
sg17
F-0.00048176100167579425
sg18
(iNeuron
Neuron
p118
(dp119
g9
(lp120
(iSynapse
Synapse
p121
(dp122
g16
F0.7
sg17
F0.0
sg18
g7
sg19
g118
sg36
F0.5323128912305783
sba(iSynapse
Synapse
p123
(dp124
g16
F0.7
sg17
F0.0
sg18
g25
sg19
g118
sg36
F-0.2009098679720438
sbasg11
F-1.0
sg12
(lp125
g116
asg55
F0.0
sbsg19
g40
sg36
F0.7214209439252413
sbasg11
F-0.4685459765834185
sg12
(lp126
sg55
F0.14168931141991375
sbsg36
F-0.053907120116691444
sbasg55
F-0.0
sbsg36
F0.4617581807662048
sbag52
ag63
ag73
ag83
ag93
ag103
ag113
ag123
asg55
I0
sbsg19
g20
sg36
F-0.8526323595371001
sbasg11
F0.9999142682152308
sg12
(lp127
g43
asg55
F1.8665318938311865e-05
sbsg36
F-0.5352292387570848
sbag34
ag50
ag61
ag71
ag81
ag91
ag101
ag111
ag121
asg55
I0
sbag25
asbsS'hidden'
p128
(lp129
(iLayer
Layer
p130
(dp131
g5
(lp132
g20
ag31
ag47
ag58
ag68
ag78
ag88
ag98
ag108
ag118
asbasg11
(iLayer
Layer
p133
(dp134
g5
(lp135
g40
asbsb.